; Function Attrs: mustprogress uwtable
define void @_ZN2cv3dnn14dnn4_v2024052113readTorchBlobERKNSt7__cxx1112basic_stringIcSt11char_traitsIcESaIcEEEb(ptr dead_on_unwind noalias writable sret(%"class.cv::Mat") align 8 %0, ptr noundef nonnull align 8 dereferenceable(32) %1, i1 noundef zeroext %2) local_unnamed_addr #3 personality ptr @__gxx_personality_v0 {
  %4 = alloca %"struct.cv::dnn::dnn4_v20240521::TorchImporter", align 8
  %5 = alloca %"class.std::__cxx11::basic_string", align 8
  %6 = alloca %"class.std::__cxx11::basic_string", align 8
  %7 = alloca %"class.std::allocator.11", align 1
  call void @_ZNSt7__cxx1112basic_stringIcSt11char_traitsIcESaIcEEC1ERKS4_(ptr noundef nonnull align 8 dereferenceable(32) %5, ptr noundef nonnull align 8 dereferenceable(32) %1)
  invoke void @_ZN2cv3dnn14dnn4_v2024052113TorchImporterC2ENSt7__cxx1112basic_stringIcSt11char_traitsIcESaIcEEEbb(ptr noundef nonnull align 8 dereferenceable(285) %4, ptr noundef nonnull %5, i1 noundef zeroext %2, i1 noundef zeroext true)
          to label %8 unwind label %13

8:                                                ; preds = %3
  call void @_ZNSt7__cxx1112basic_stringIcSt11char_traitsIcESaIcEED1Ev(ptr noundef nonnull align 8 dereferenceable(32) %5) #18
  invoke void @_ZN2cv3dnn14dnn4_v2024052113TorchImporter10readObjectEv(ptr noundef nonnull align 8 dereferenceable(285) %4)
          to label %9 unwind label %15

9:                                                ; preds = %8
  %10 = getelementptr inbounds i8, ptr %4, i64 232
  %11 = load i64, ptr %10, align 8
  %12 = icmp eq i64 %11, 1
  br i1 %12, label %25, label %17

13:                                               ; preds = %3
  %14 = landingpad { ptr, i32 }
          cleanup
  call void @_ZNSt7__cxx1112basic_stringIcSt11char_traitsIcESaIcEED1Ev(ptr noundef nonnull align 8 dereferenceable(32) %5) #18
  br label %31

15:                                               ; preds = %25, %8
  %16 = landingpad { ptr, i32 }
          cleanup
  br label %30

17:                                               ; preds = %9
  call void @_ZNSaIcEC1Ev(ptr noundef nonnull align 1 dereferenceable(1) %7) #18
  invoke void @_ZNSt7__cxx1112basic_stringIcSt11char_traitsIcESaIcEEC1EPKcRKS3_(ptr noundef nonnull align 8 dereferenceable(32) %6, ptr noundef nonnull @.str, ptr noundef nonnull align 1 dereferenceable(1) %7)
          to label %18 unwind label %20

18:                                               ; preds = %17
  invoke void @_ZN2cv5errorEiRKNSt7__cxx1112basic_stringIcSt11char_traitsIcESaIcEEEPKcS9_i(i32 noundef -215, ptr noundef nonnull align 8 dereferenceable(32) %6, ptr noundef nonnull @__func__._ZN2cv3dnn14dnn4_v2024052113readTorchBlobERKNSt7__cxx1112basic_stringIcSt11char_traitsIcESaIcEEEb, ptr noundef nonnull @.str.1, i32 noundef 1254) #19
          to label %19 unwind label %22

19:                                               ; preds = %18
  unreachable

20:                                               ; preds = %17
  %21 = landingpad { ptr, i32 }
          cleanup
  br label %24

22:                                               ; preds = %18
  %23 = landingpad { ptr, i32 }
          cleanup
  call void @_ZNSt7__cxx1112basic_stringIcSt11char_traitsIcESaIcEED1Ev(ptr noundef nonnull align 8 dereferenceable(32) %6) #18
  br label %24

24:                                               ; preds = %22, %20
  %.pn = phi { ptr, i32 } [ %23, %22 ], [ %21, %20 ]
  call void @_ZNSaIcED1Ev(ptr noundef nonnull align 1 dereferenceable(1) %7) #18
  br label %30

25:                                               ; preds = %9
  %26 = getelementptr inbounds i8, ptr %4, i64 216
  %27 = load ptr, ptr %26, align 8
  %28 = getelementptr inbounds i8, ptr %27, i64 40
  invoke void @_ZN2cv3MatC1ERKS0_(ptr noundef nonnull align 8 dereferenceable(96) %0, ptr noundef nonnull align 8 dereferenceable(96) %28)
          to label %29 unwind label %15

29:                                               ; preds = %25
  call void @_ZN2cv3dnn14dnn4_v2024052113TorchImporterD2Ev(ptr noundef nonnull align 8 dereferenceable(285) %4) #18
  ret void

30:                                               ; preds = %24, %15
  %.pn7 = phi { ptr, i32 } [ %16, %15 ], [ %.pn, %24 ]
  call void @_ZN2cv3dnn14dnn4_v2024052113TorchImporterD2Ev(ptr noundef nonnull align 8 dereferenceable(285) %4) #18
  br label %31

31:                                               ; preds = %30, %13
  %.pn7.pn = phi { ptr, i32 } [ %.pn7, %30 ], [ %14, %13 ]
  resume { ptr, i32 } %.pn7.pn
}